target datalayout = "e-m:e-p270:32:32-p271:32:32-p272:64:64-i64:64-i128:128-f80:128-n8:16:32:64-S128"
target triple = "x86_64-pc-linux-gnu"

; Function Attrs: nounwind uwtable
define void @right_mult_with_vector_transpose(ptr noundef %0, i32 noundef %1, i32 noundef %2, ptr noundef %3, ptr noundef %4) #0 {
  %6 = alloca ptr, align 8
  %7 = alloca i32, align 4
  %8 = alloca i32, align 4
  %9 = alloca ptr, align 8
  %10 = alloca ptr, align 8
  %11 = alloca i32, align 4
  %12 = alloca i32, align 4
  %13 = alloca double, align 8
  store ptr %0, ptr %6, align 8, !tbaa !3
  store i32 %1, ptr %7, align 4, !tbaa !8
  store i32 %2, ptr %8, align 4, !tbaa !8
  store ptr %3, ptr %9, align 8, !tbaa !10
  store ptr %4, ptr %10, align 8, !tbaa !10
  call void @llvm.lifetime.start.p0(i64 4, ptr %11) #8
  call void @llvm.lifetime.start.p0(i64 4, ptr %12) #8
  call void @llvm.lifetime.start.p0(i64 8, ptr %13) #8
  store i32 0, ptr %11, align 4, !tbaa !8
  br label %14

14:                                               ; preds = %49, %5
  %15 = load i32, ptr %11, align 4, !tbaa !8
  %16 = load i32, ptr %7, align 4, !tbaa !8
  %17 = icmp slt i32 %15, %16
  br i1 %17, label %18, label %52

18:                                               ; preds = %14
  store double 0.000000e+00, ptr %13, align 8, !tbaa !12
  store i32 0, ptr %12, align 4, !tbaa !8
  br label %19

19:                                               ; preds = %40, %18
  %20 = load i32, ptr %12, align 4, !tbaa !8
  %21 = load i32, ptr %8, align 4, !tbaa !8
  %22 = icmp slt i32 %20, %21
  br i1 %22, label %23, label %43

23:                                               ; preds = %19
  %24 = load ptr, ptr %6, align 8, !tbaa !3
  %25 = load i32, ptr %12, align 4, !tbaa !8
  %26 = sext i32 %25 to i64
  %27 = getelementptr inbounds ptr, ptr %24, i64 %26
  %28 = load ptr, ptr %27, align 8, !tbaa !10
  %29 = load i32, ptr %11, align 4, !tbaa !8
  %30 = sext i32 %29 to i64
  %31 = getelementptr inbounds double, ptr %28, i64 %30
  %32 = load double, ptr %31, align 8, !tbaa !12
  %33 = load ptr, ptr %9, align 8, !tbaa !10
  %34 = load i32, ptr %12, align 4, !tbaa !8
  %35 = sext i32 %34 to i64
  %36 = getelementptr inbounds double, ptr %33, i64 %35
  %37 = load double, ptr %36, align 8, !tbaa !12
  %38 = load double, ptr %13, align 8, !tbaa !12
  %39 = call double @llvm.fmuladd.f64(double %32, double %37, double %38)
  store double %39, ptr %13, align 8, !tbaa !12
  br label %40

40:                                               ; preds = %23
  %41 = load i32, ptr %12, align 4, !tbaa !8
  %42 = add nsw i32 %41, 1
  store i32 %42, ptr %12, align 4, !tbaa !8
  br label %19, !llvm.loop !74

43:                                               ; preds = %19
  %44 = load double, ptr %13, align 8, !tbaa !12
  %45 = load ptr, ptr %10, align 8, !tbaa !10
  %46 = load i32, ptr %11, align 4, !tbaa !8
  %47 = sext i32 %46 to i64
  %48 = getelementptr inbounds double, ptr %45, i64 %47
  store double %44, ptr %48, align 8, !tbaa !12
  br label %49

49:                                               ; preds = %43
  %50 = load i32, ptr %11, align 4, !tbaa !8
  %51 = add nsw i32 %50, 1
  store i32 %51, ptr %11, align 4, !tbaa !8
  br label %14, !llvm.loop !75

52:                                               ; preds = %14
  call void @llvm.lifetime.end.p0(i64 8, ptr %13) #8
  call void @llvm.lifetime.end.p0(i64 4, ptr %12) #8
  call void @llvm.lifetime.end.p0(i64 4, ptr %11) #8
  ret void
}